; Function Attrs: mustprogress nounwind uwtable
define hidden noundef i32 @_ZNK11TypeInstPtr4hashEv(ptr noundef nonnull align 8 dereferenceable(80) %0) unnamed_addr #0 align 2 {
  %2 = load ptr, ptr %0, align 8
  %3 = getelementptr inbounds i8, ptr %2, i64 232
  %4 = load ptr, ptr %3, align 8
  %5 = tail call noundef ptr %4(ptr noundef nonnull align 8 dereferenceable(80) %0) #17
  %6 = tail call noundef i32 @_ZN12ciBaseObject5identEv(ptr noundef nonnull align 8 dereferenceable(12) %5) #17
  %7 = getelementptr inbounds i8, ptr %0, i64 48
  %8 = load ptr, ptr %7, align 8
  %.not.i = icmp eq ptr %8, null
  br i1 %.not.i, label %11, label %9

9:                                                ; preds = %1
  %10 = tail call noundef i32 @_ZN8ciObject4hashEv(ptr noundef nonnull align 8 dereferenceable(40) %8) #17
  br label %11

11:                                               ; preds = %9, %1
  %12 = phi i32 [ %10, %9 ], [ 0, %1 ]
  %13 = getelementptr inbounds i8, ptr %0, i64 72
  %14 = load i8, ptr %13, align 8
  %15 = getelementptr inbounds i8, ptr %0, i64 76
  %16 = load i32, ptr %15, align 4
  %17 = getelementptr inbounds i8, ptr %0, i64 40
  %18 = load i32, ptr %17, align 8
  %19 = getelementptr inbounds i8, ptr %0, i64 36
  %20 = load i32, ptr %19, align 4
  %21 = getelementptr inbounds i8, ptr %0, i64 24
  %22 = load ptr, ptr %21, align 8
  %23 = icmp eq ptr %22, null
  br i1 %23, label %_ZNK10TypeOopPtr4hashEv.exit, label %24

24:                                               ; preds = %11
  %25 = load ptr, ptr %22, align 8
  %26 = getelementptr inbounds i8, ptr %25, i64 80
  %27 = load ptr, ptr %26, align 8
  %28 = tail call noundef i32 %27(ptr noundef nonnull align 8 dereferenceable(44) %22) #17
  br label %_ZNK10TypeOopPtr4hashEv.exit

_ZNK10TypeOopPtr4hashEv.exit:                     ; preds = %11, %24
  %.0.i.i.i = phi i32 [ %28, %24 ], [ 0, %11 ]
  %29 = mul i32 %6, 31
  %30 = and i8 %14, 1
  %31 = zext nneg i8 %30 to i32
  %32 = getelementptr inbounds i8, ptr %0, i64 32
  %33 = load i32, ptr %32, align 8
  %34 = getelementptr inbounds i8, ptr %0, i64 64
  %35 = load ptr, ptr %34, align 8
  %36 = load ptr, ptr %35, align 8
  %37 = getelementptr inbounds i8, ptr %36, i64 80
  %38 = load ptr, ptr %37, align 8
  %39 = tail call noundef i32 %38(ptr noundef nonnull align 8 dereferenceable(64) %35) #17
  %40 = add i32 %12, %29
  %41 = add i32 %40, %16
  %42 = add i32 %41, %31
  %43 = add i32 %42, %18
  %44 = add i32 %43, %20
  %45 = add i32 %44, %.0.i.i.i
  %46 = add i32 %45, %33
  %47 = add i32 %46, %39
  ret i32 %47
}